target datalayout = "e-m:e-p270:32:32-p271:32:32-p272:64:64-i64:64-i128:128-f80:128-n8:16:32:64-S128"
target triple = "x86_64-pc-linux-gnu"

%struct._asn1_ctx_t = type { i32, i32, i8, ptr, ptr, ptr, ptr, ptr, %struct.anon, %struct.anon.2, %struct.anon.3, ptr }
%struct.anon = type { i32, i8, i8, i8, ptr, ptr, i32, i32, ptr, ptr, ptr, %union.anon }
%union.anon = type { %struct.anon.0 }
%struct.anon.0 = type { ptr }
%struct.anon.2 = type { ptr, ptr, ptr }
%struct.anon.3 = type { i32, i8, ptr, i32, i32, ptr, ptr, ptr, %union.anon.4 }
%union.anon.4 = type { %struct.anon.5 }
%struct.anon.5 = type { ptr }

; Function Attrs: null_pointer_is_valid sspstrong uwtable
define internal i32 @dissect_ngap_BluetoothName(ptr noundef %0, i32 noundef %1, ptr noundef %2, ptr noundef %3, i32 noundef %4) #0 {
  %6 = alloca ptr, align 8
  %7 = alloca i32, align 4
  %8 = alloca ptr, align 8
  %9 = alloca ptr, align 8
  %10 = alloca i32, align 4
  %11 = alloca ptr, align 8
  store ptr %0, ptr %6, align 8
  store i32 %1, ptr %7, align 4
  store ptr %2, ptr %8, align 8
  store ptr %3, ptr %9, align 8
  store i32 %4, ptr %10, align 4
  call void @llvm.lifetime.start.p0(i64 8, ptr %11) #11
  store ptr null, ptr %11, align 8
  %12 = load ptr, ptr %6, align 8
  %13 = load i32, ptr %7, align 4
  %14 = load ptr, ptr %8, align 8
  %15 = load ptr, ptr %9, align 8
  %16 = call i32 @dissect_per_octet_string(ptr noundef %12, i32 noundef %13, ptr noundef %14, ptr noundef %15, i32 noundef -1, i32 noundef 1, i32 noundef 248, i1 noundef zeroext false, ptr noundef %11)
  store i32 %16, ptr %7, align 4
  %17 = load ptr, ptr %9, align 8
  %18 = load i32, ptr %10, align 4
  %19 = load ptr, ptr %11, align 8
  %20 = call ptr @proto_tree_add_item(ptr noundef %17, i32 noundef %18, ptr noundef %19, i32 noundef 0, i32 noundef -1, i32 noundef 2)
  %21 = load ptr, ptr %8, align 8
  %22 = getelementptr inbounds nuw %struct._asn1_ctx_t, ptr %21, i32 0, i32 4
  store ptr %20, ptr %22, align 8
  %23 = load i32, ptr %7, align 4
  call void @llvm.lifetime.end.p0(i64 8, ptr %11) #11
  ret i32 %23
}